target datalayout = "e-m:e-p270:32:32-p271:32:32-p272:64:64-i64:64-i128:128-f80:128-n8:16:32:64-S128"
target triple = "x86_64-pc-linux-gnu"

%class.QString = type { %struct.QArrayDataPointer }
%struct.QArrayDataPointer = type { ptr, ptr, i64 }
%class.GeometryStateDialog = type { %class.QDialog, %class.QString, ptr }
%class.QDialog = type { %class.QWidget }
%class.QWidget = type { %class.QObject, %class.QPaintDevice.base, ptr }
%class.QObject = type { ptr, %class.QScopedPointer }
%class.QScopedPointer = type { ptr }
%class.QPaintDevice.base = type <{ ptr, i16 }>
%class.QList = type { %struct.QArrayDataPointer.0 }
%struct.QArrayDataPointer.0 = type { ptr, ptr, i64 }
%class.WiresharkDialog = type <{ %class.GeometryStateDialog, ptr, i8, [7 x i8], %class.QString, %class.QList, i32, i8, [3 x i8] }>
%class.QVariant = type { %"struct.QVariant::Private" }
%"struct.QVariant::Private" = type { %union.anon, i64 }
%union.anon = type { ptr, [16 x i8] }
%struct._bluetooth_item_data_t = type { i32, i32, i32, i32 }

; Function Attrs: mustprogress null_pointer_is_valid sspstrong uwtable
define void @_ZN22BluetoothDevicesDialog32on_tableTreeWidget_itemActivatedEP15QTreeWidgetItemi(ptr noundef align 8 dereferenceable_or_null(224) %0, ptr noundef %1, i32 noundef %2) #0 align 2 personality ptr @__gxx_personality_v0 {
  %4 = alloca ptr, align 8
  %5 = alloca ptr, align 8
  %6 = alloca i32, align 4
  %7 = alloca ptr, align 8
  %8 = alloca %class.QVariant, align 8
  %9 = alloca ptr, align 8
  %10 = alloca i32, align 4
  store ptr %0, ptr %4, align 8
  store ptr %1, ptr %5, align 8
  store i32 %2, ptr %6, align 4
  %11 = load ptr, ptr %4, align 8
  %12 = getelementptr inbounds nuw %class.WiresharkDialog, ptr %11, i32 0, i32 2
  %13 = load i8, ptr %12, align 8, !range !6, !noundef !7
  %14 = trunc i8 %13 to i1
  br i1 %14, label %15, label %16

15:                                               ; preds = %3
  br label %26

16:                                               ; preds = %3
  call void @llvm.lifetime.start.p0(i64 8, ptr %7) #26
  %17 = load ptr, ptr %5, align 8
  %18 = load ptr, ptr %17, align 8
  %19 = getelementptr inbounds ptr, ptr %18, i64 3
  %20 = load ptr, ptr %19, align 8
  call void %20(ptr dead_on_unwind writable sret(%class.QVariant) align 8 %8, ptr noundef align 8 dereferenceable_or_null(92) %17, i32 noundef 0, i32 noundef 256)
  %21 = invoke noundef ptr @_ZN14VariantPointerI22_bluetooth_item_data_tE5asPtrE8QVariant(ptr noundef %8)
          to label %22 unwind label %27

22:                                               ; preds = %16
  call void @_ZN8QVariantD1Ev(ptr noundef align 8 dereferenceable_or_null(32) %8) #26
  store ptr %21, ptr %7, align 8
  %23 = load ptr, ptr %7, align 8
  %24 = getelementptr inbounds nuw %struct._bluetooth_item_data_t, ptr %23, i32 0, i32 2
  %25 = load i32, ptr %24, align 4
  call void @_ZN22BluetoothDevicesDialog10goToPacketEi(ptr noundef align 8 dereferenceable_or_null(224) %11, i32 noundef %25)
  call void @llvm.lifetime.end.p0(i64 8, ptr %7) #26
  br label %26

26:                                               ; preds = %22, %15
  ret void

27:                                               ; preds = %16
  %28 = landingpad { ptr, i32 }
          cleanup
  %29 = extractvalue { ptr, i32 } %28, 0
  store ptr %29, ptr %9, align 8
  %30 = extractvalue { ptr, i32 } %28, 1
  store i32 %30, ptr %10, align 4
  call void @_ZN8QVariantD1Ev(ptr noundef align 8 dereferenceable_or_null(32) %8) #26
  call void @llvm.lifetime.end.p0(i64 8, ptr %7) #26
  br label %31

31:                                               ; preds = %27
  %32 = load ptr, ptr %9, align 8
  %33 = load i32, ptr %10, align 4
  %34 = insertvalue { ptr, i32 } poison, ptr %32, 0
  %35 = insertvalue { ptr, i32 } %34, i32 %33, 1
  resume { ptr, i32 } %35
}