; Function Attrs: mustprogress null_pointer_is_valid sspstrong uwtable
define void @_ZN22BluetoothDevicesDialog32on_tableTreeWidget_itemActivatedEP15QTreeWidgetItemi(ptr noundef align 8 dereferenceable_or_null(224) %0, ptr noundef %1, i32 noundef %2) local_unnamed_addr #0 align 2 personality ptr @__gxx_personality_v0 {
  %4 = alloca %class.QVariant, align 8
  %5 = getelementptr inbounds nuw i8, ptr %0, i64 80
  %6 = load i8, ptr %5, align 8, !range !36, !noundef !37
  %7 = trunc nuw i8 %6 to i1
  br i1 %7, label %16, label %8

8:                                                ; preds = %3
  %9 = load ptr, ptr %1, align 8
  %10 = getelementptr inbounds nuw i8, ptr %9, i64 24
  %11 = load ptr, ptr %10, align 8
  call void %11(ptr dead_on_unwind nonnull writable sret(%class.QVariant) align 8 %4, ptr noundef align 8 dereferenceable_or_null(92) %1, i32 noundef 0, i32 noundef 256)
  %12 = invoke noundef ptr @_ZN14VariantPointerI22_bluetooth_item_data_tE5asPtrE8QVariant(ptr noundef nonnull %4)
          to label %13 unwind label %17

13:                                               ; preds = %8
  call void @_ZN8QVariantD1Ev(ptr noundef nonnull align 8 dereferenceable_or_null(32) %4) #21
  %14 = getelementptr inbounds nuw i8, ptr %12, i64 8
  %15 = load i32, ptr %14, align 4
  call void @_ZN22BluetoothDevicesDialog10goToPacketEi(ptr noundef align 8 dereferenceable_or_null(224) %0, i32 noundef %15)
  br label %16

16:                                               ; preds = %3, %13
  ret void

17:                                               ; preds = %8
  %18 = landingpad { ptr, i32 }
          cleanup
  call void @_ZN8QVariantD1Ev(ptr noundef nonnull align 8 dereferenceable_or_null(32) %4) #21
  resume { ptr, i32 } %18
}